; Function Attrs: mustprogress uwtable
define hidden noundef i64 @_ZNK6google8protobuf14ServiceOptions12ByteSizeLongEv(ptr noundef nonnull align 8 dereferenceable(80) %0) unnamed_addr #3 align 2 {
  %2 = getelementptr inbounds nuw i8, ptr %0, i64 16
  %3 = tail call noundef i64 @_ZNK6google8protobuf8internal12ExtensionSet8ByteSizeEv(ptr noundef nonnull align 8 dereferenceable(24) %2)
  %4 = getelementptr inbounds nuw i8, ptr %0, i64 56
  %5 = load i32, ptr %4, align 8, !tbaa !22
  %6 = sext i32 %5 to i64
  %7 = shl nsw i64 %6, 1
  %8 = add i64 %7, %3
  %9 = getelementptr inbounds nuw i8, ptr %0, i64 64
  %10 = load ptr, ptr %9, align 8, !tbaa !18
  %.not.i.i = icmp eq ptr %10, null
  %11 = getelementptr inbounds nuw i8, ptr %10, i64 8
  %spec.select.i.i = select i1 %.not.i.i, ptr null, ptr %11
  %12 = getelementptr inbounds ptr, ptr %spec.select.i.i, i64 %6
  %.not1415 = icmp eq i32 %5, 0
  br i1 %.not1415, label %._crit_edge, label %.lr.ph

._crit_edge:                                      ; preds = %.lr.ph, %1
  %.0.lcssa = phi i64 [ %8, %1 ], [ %30, %.lr.ph ]
  %13 = getelementptr inbounds nuw i8, ptr %0, i64 40
  %14 = load i32, ptr %13, align 8, !tbaa !58
  %15 = and i32 %14, 1
  %.not = icmp eq i32 %15, 0
  %16 = add i64 %.0.lcssa, 3
  %spec.select = select i1 %.not, i64 %.0.lcssa, i64 %16
  %17 = getelementptr inbounds nuw i8, ptr %0, i64 44
  %18 = tail call noundef i64 @_ZNK6google8protobuf7Message29MaybeComputeUnknownFieldsSizeEmPNS0_8internal10CachedSizeE(ptr noundef nonnull align 8 dereferenceable(16) %0, i64 noundef %spec.select, ptr noundef nonnull %17)
  ret i64 %18

.lr.ph:                                           ; preds = %1, %.lr.ph
  %.017 = phi i64 [ %30, %.lr.ph ], [ %8, %1 ]
  %.sroa.011.016 = phi ptr [ %31, %.lr.ph ], [ %spec.select.i.i, %1 ]
  %19 = load ptr, ptr %.sroa.011.016, align 8, !tbaa !27
  %20 = tail call noundef i64 @_ZNK6google8protobuf19UninterpretedOption12ByteSizeLongEv(ptr noundef nonnull align 8 dereferenceable(96) %19)
  %21 = trunc i64 %20 to i32
  %22 = or i32 %21, 1
  %23 = tail call range(i32 0, 33) i32 @llvm.ctlz.i32(i32 %22, i1 true)
  %24 = xor i32 %23, 31
  %25 = mul nuw nsw i32 %24, 9
  %26 = add nuw nsw i32 %25, 73
  %27 = lshr i32 %26, 6
  %28 = zext nneg i32 %27 to i64
  %29 = add i64 %20, %.017
  %30 = add i64 %29, %28
  %31 = getelementptr inbounds nuw i8, ptr %.sroa.011.016, i64 8
  %.not14 = icmp eq ptr %31, %12
  br i1 %.not14, label %._crit_edge, label %.lr.ph
}